(dp0
S'second'
p1
(dp2
S'itl'
p3
I300
sS'hp'
p4
I300
sS'number'
p5
I1
sS'spl'
p6
I300
sS'dead_flag'
p7
I00
sS'spd'
p8
I300
sS'id'
p9
I5
sS'name'
p10
S'\xe3\x83\x88\xe3\x83\xbc\xe3\x82\xaf\xe3\x83\xb3B'
p11
sS'act_flag'
p12
NsS'atk'
p13
I300
sS'mp'
p14
I300
sS'def'
p15
I300
ssS'fourth'
p16
(dp17
g3
I300
sg4
I300
sg5
I3
sg6
I300
sg7
I00
sg8
I300
sg9
I7
sg10
S'\xe3\x83\x88\xe3\x83\xbc\xe3\x82\xaf\xe3\x83\xb3D'
p18
sg12
Nsg13
I300
sg14
I300
sg15
I300
ssS'third'
p19
(dp20
g3
I300
sg4
I300
sg5
I2
sg6
I300
sg7
I00
sg8
I300
sg9
I6
sg10
S'\xe3\x83\x88\xe3\x83\xbc\xe3\x82\xaf\xe3\x83\xb3C'
p21
sg12
Nsg13
I300
sg14
I300
sg15
I300
ssS'first'
p22
(dp23
g3
I300
sg4
I300
sg5
I0
sg6
I300
sg7
I00
sg8
I300
sg9
I4
sg10
S'\xe3\x83\x88\xe3\x83\xbc\xe3\x82\xaf\xe3\x83\xb3A'
p24
sg12
Nsg13
I300
sg14
I300
sg15
I300
ss.