(dp0
S'second'
p1
(dp2
S'itl'
p3
I100
sS'hp'
p4
I500
sS'number'
p5
I1
sS'spl'
p6
I200
sS'dead_flag'
p7
I00
sS'spd'
p8
I300
sS'id'
p9
I1
sS'name'
p10
S'\xe3\x81\xb6\xe3\x81\xa8\xe3\x81\x86\xe3\x81\x8b'
p11
sS'act_flag'
p12
NsS'atk'
p13
I500
sS'mp'
p14
I0
sS'def'
p15
I300
ssS'fourth'
p16
(dp17
g3
I500
sg4
I300
sg5
I3
sg6
I400
sg7
I00
sg8
I250
sg9
I3
sg10
S'\xe3\x81\x9d\xe3\x81\x86\xe3\x82\x8a\xe3\x82\x87'
p18
sg12
Nsg13
I100
sg14
I200
sg15
I200
ssS'third'
p19
(dp20
g3
I500
sg4
I300
sg5
I2
sg6
I400
sg7
I00
sg8
I250
sg9
I2
sg10
S'\xe3\x81\xbe\xe3\x81\xa9\xe3\x81\x86\xe3\x81\x97'
p21
sg12
Nsg13
I100
sg14
I200
sg15
I200
ssS'first'
p22
(dp23
g3
I100
sg4
I500
sg5
I0
sg6
I200
sg7
I00
sg8
I200
sg9
I0
sg10
S'\xe3\x81\x9b\xe3\x82\x93\xe3\x81\x97'
p24
sg12
Nsg13
I500
sg14
I0
sg15
I400
ss.